; Function Attrs: mustprogress nounwind uwtable
define dso_local noundef i32 @_ZNK4node12RealEnvStore5QueryEPKc(ptr nocapture nonnull readnone align 8 %this, ptr noundef %key) unnamed_addr #3 align 2 {
entry:
  %val = alloca [2 x i8], align 1
  %init_sz = alloca i64, align 8
  tail call void @uv_mutex_lock(ptr noundef nonnull @_ZN4node11per_process13env_var_mutexE) #20
  store i64 2, ptr %init_sz, align 8
  %call = call i32 @uv_os_getenv(ptr noundef %key, ptr noundef nonnull %val, ptr noundef nonnull %init_sz) #20
  %cmp = icmp eq i32 %call, -2
  %. = sext i1 %cmp to i32
  call void @uv_mutex_unlock(ptr noundef nonnull @_ZN4node11per_process13env_var_mutexE) #20
  ret i32 %.
}